; Function Attrs: mustprogress uwtable
define dso_local noundef zeroext i1 @_ZNK12DyndepLoader11LoadDyndepsEP4NodePNSt7__cxx1112basic_stringIcSt11char_traitsIcESaIcEEE(ptr noundef nonnull align 8 dereferenceable(24) %0, ptr noundef initializes((53, 54)) %1, ptr noundef %2) local_unnamed_addr #0 align 2 personality ptr @__gxx_personality_v0 {
  %4 = alloca %struct.DyndepFile, align 8
  call void @llvm.lifetime.start.p0(i64 48, ptr nonnull %4) #19
  %5 = getelementptr inbounds nuw i8, ptr %4, i64 8
  store i32 0, ptr %5, align 8, !tbaa !4
  %6 = getelementptr inbounds nuw i8, ptr %4, i64 16
  store ptr null, ptr %6, align 8, !tbaa !13
  %7 = getelementptr inbounds nuw i8, ptr %4, i64 24
  store ptr %5, ptr %7, align 8, !tbaa !14
  %8 = getelementptr inbounds nuw i8, ptr %4, i64 32
  store ptr %5, ptr %8, align 8, !tbaa !15
  %9 = getelementptr inbounds nuw i8, ptr %4, i64 40
  store i64 0, ptr %9, align 8, !tbaa !16
  %10 = invoke noundef zeroext i1 @_ZNK12DyndepLoader11LoadDyndepsEP4NodeP10DyndepFilePNSt7__cxx1112basic_stringIcSt11char_traitsIcESaIcEEE(ptr noundef nonnull align 8 dereferenceable(24) %0, ptr noundef %1, ptr noundef nonnull %4, ptr noundef %2)
          to label %11 unwind label %16

11:                                               ; preds = %3
  %12 = load ptr, ptr %6, align 8, !tbaa !13
  invoke void @_ZNSt8_Rb_treeIP4EdgeSt4pairIKS1_7DyndepsESt10_Select1stIS5_ESt4lessIS1_ESaIS5_EE8_M_eraseEPSt13_Rb_tree_nodeIS5_E(ptr noundef nonnull align 8 dereferenceable(48) %4, ptr noundef %12)
          to label %_ZNSt3mapIP4Edge7DyndepsSt4lessIS1_ESaISt4pairIKS1_S2_EEED2Ev.exit unwind label %13

13:                                               ; preds = %11
  %14 = landingpad { ptr, i32 }
          catch ptr null
  %15 = extractvalue { ptr, i32 } %14, 0
  call void @__clang_call_terminate(ptr %15) #20
  unreachable

_ZNSt3mapIP4Edge7DyndepsSt4lessIS1_ESaISt4pairIKS1_S2_EEED2Ev.exit: ; preds = %11
  call void @llvm.lifetime.end.p0(i64 48, ptr nonnull %4) #19
  ret i1 %10

16:                                               ; preds = %3
  %17 = landingpad { ptr, i32 }
          cleanup
  call void @_ZNSt3mapIP4Edge7DyndepsSt4lessIS1_ESaISt4pairIKS1_S2_EEED2Ev(ptr noundef nonnull align 8 dereferenceable(48) %4) #19
  call void @llvm.lifetime.end.p0(i64 48, ptr nonnull %4) #19
  resume { ptr, i32 } %17
}